Certificate:
    Data:
        Version: 3 (0x2)
        Serial Number: 1 (0x1)
    Signature Algorithm: sha256WithRSAEncryption
        Issuer: CN=ca
        Validity
            Not Before: Jan 14 13:54:29 2017 GMT
            Not After : Jan 13 13:54:29 2021 GMT
        Subject: C=US, ST=California, L=Mountain View, O=Blackbox Inc, CN=server
        Subject Public Key Info:
            Public Key Algorithm: rsaEncryption
                Public-Key: (2048 bit)
                Modulus:
                    00:de:63:d1:ec:08:00:da:32:0c:1f:1e:51:4f:ba:
                    b5:cb:70:d0:59:39:b3:c9:b9:12:ae:c5:b9:f9:b9:
                    4d:4e:7c:f8:7e:9e:f7:44:34:cd:ef:52:b6:1b:ed:
                    59:c9:c9:d3:01:15:1d:3c:a0:44:19:ca:90:45:ad:
                    5e:ca:2a:71:08:c5:65:b8:5f:c5:0a:e0:fd:4c:6d:
                    92:9d:b2:40:a2:12:44:19:a0:68:03:89:ee:cd:33:
                    7e:30:00:c8:f1:64:04:4a:d8:17:be:d7:cc:d1:f3:
                    84:98:87:a2:2b:c5:04:1b:6d:4c:8e:40:1c:ca:af:
                    c0:1c:be:60:71:b9:90:b4:87:82:ea:71:1d:53:a6:
                    92:66:d0:a8:65:a3:ff:2b:62:f6:75:55:8c:70:4d:
                    54:51:4f:82:28:71:92:bd:a3:a3:5f:66:48:0c:ae:
                    59:2f:0a:fc:74:3d:4a:a3:4e:08:b2:2a:10:e1:57:
                    e6:57:7c:6b:70:52:75:88:11:ff:e6:86:b0:14:6c:
                    63:0c:5b:df:52:45:09:0c:e6:aa:92:35:13:3d:0d:
                    55:22:07:15:33:dc:6c:96:34:c5:9a:de:3d:dc:7c:
                    07:4a:0c:12:a2:73:ba:27:a3:fb:61:ea:c7:16:26:
                    26:7a:f0:20:12:a9:de:5c:ac:d8:a2:fa:5c:2c:72:
                    4d:85
                Exponent: 65537 (0x10001)
        X509v3 extensions:
            X509v3 Basic Constraints: 
                CA:FALSE
            Netscape Comment: 
                OpenSSL Generated Certificate
            X509v3 Subject Key Identifier: 
                90:1A:5B:23:F6:48:B4:4E:FA:EA:0F:F2:8D:61:51:85:71:63:1D:96
            X509v3 Authority Key Identifier: 
                keyid:C9:DB:00:7D:E7:49:DB:4C:03:8E:A9:25:D8:56:8F:12:CE:D6:E2:06

    Signature Algorithm: sha256WithRSAEncryption
         01:a2:ea:b5:ab:21:e3:17:1f:b9:d4:0c:e1:6c:a5:aa:8c:a8:
         de:e4:02:fd:9f:90:19:9a:6a:77:b1:9f:dd:f5:44:2b:a7:28:
         62:6d:f8:f3:9c:2a:78:71:36:32:cb:39:77:c5:55:1b:32:fe:
         bd:1b:4d:a4:54:e4:a4:01:f3:3f:e6:6a:65:9a:38:2e:ae:78:
         22:04:64:70:1d:64:f5:8b:90:2f:33:ed:4b:05:73:ff:79:23:
         17:5a:d3:fc:1d:b4:fd:0b:9c:f2:3b:1b:bf:1d:a3:17:1a:00:
         e7:b5:16:ca:22:b3:b3:86:6d:68:63:49:d6:d5:97:f8:9b:df:
         19:1f:f7:32:05:69:e8:5e:34:cf:d8:bb:1c:25:e6:5d:43:3f:
         4d:4b:a1:60:fd:e7:3e:58:89:e2:95:ee:11:cd:31:23:b2:75:
         45:91:97:24:ee:20:6a:4f:63:fc:3d:31:44:71:50:39:1b:7c:
         95:3f:1a:b7:f4:fc:e2:c9:12:0d:b3:88:06:22:b1:f8:d7:67:
         a4:88:2f:af:ae:bd:d8:7e:f4:5d:7b:81:d2:32:90:3e:16:27:
         94:88:7e:7c:53:0d:86:a2:bc:9d:ef:0a:55:12:8d:e1:91:34:
         b3:ee:02:89:e7:56:a3:a6:64:a4:45:ed:a2:a5:52:47:cf:ab:
         58:30:3f:28
-----BEGIN CERTIFICATE-----
MIIDZTCCAk2gAwIBAgIBATANBgkqhkiG9w0BAQsFADANMQswCQYDVQQDDAJjYTAe
Fw0xNzAxMTQxMzU0MjlaFw0yMTAxMTMxMzU0MjlaMGIxCzAJBgNVBAYTAlVTMRMw
EQYDVQQIDApDYWxpZm9ybmlhMRYwFAYDVQQHDA1Nb3VudGFpbiBWaWV3MRUwEwYD
VQQKDAxCbGFja2JveCBJbmMxDzANBgNVBAMMBnNlcnZlcjCCASIwDQYJKoZIhvcN
AQEBBQADggEPADCCAQoCggEBAN5j0ewIANoyDB8eUU+6tctw0Fk5s8m5Eq7Fufm5
TU58+H6e90Q0ze9SthvtWcnJ0wEVHTygRBnKkEWtXsoqcQjFZbhfxQrg/Uxtkp2y
QKISRBmgaAOJ7s0zfjAAyPFkBErYF77XzNHzhJiHoivFBBttTI5AHMqvwBy+YHG5
kLSHgupxHVOmkmbQqGWj/yti9nVVjHBNVFFPgihxkr2jo19mSAyuWS8K/HQ9SqNO
CLIqEOFX5ld8a3BSdYgR/+aGsBRsYwxb31JFCQzmqpI1Ez0NVSIHFTPcbJY0xZre
Pdx8B0oMEqJzuiej+2HqxxYmJnrwIBKp3lys2KL6XCxyTYUCAwEAAaN7MHkwCQYD
VR0TBAIwADAsBglghkgBhvhCAQ0EHxYdT3BlblNTTCBHZW5lcmF0ZWQgQ2VydGlm
aWNhdGUwHQYDVR0OBBYEFJAaWyP2SLRO+uoP8o1hUYVxYx2WMB8GA1UdIwQYMBaA
FMnbAH3nSdtMA46pJdhWjxLO1uIGMA0GCSqGSIb3DQEBCwUAA4IBAQABouq1qyHj
Fx+51AzhbKWqjKje5AL9n5AZmmp3sZ/d9UQrpyhibfjznCp4cTYyyzl3xVUbMv69
G02kVOSkAfM/5mplmjgurngiBGRwHWT1i5AvM+1LBXP/eSMXWtP8HbT9C5zyOxu/
HaMXGgDntRbKIrOzhm1oY0nW1Zf4m98ZH/cyBWnoXjTP2LscJeZdQz9NS6Fg/ec+
WInile4RzTEjsnVFkZck7iBqT2P8PTFEcVA5G3yVPxq39PziyRINs4gGIrH412ek
iC+vrr3YfvRde4HSMpA+FieUiH58Uw2Goryd7wpVEo3hkTSz7gKJ51ajpmSkRe2i
pVJHz6tYMD8o
-----END CERTIFICATE-----
